target datalayout = "e-m:e-p270:32:32-p271:32:32-p272:64:64-i64:64-i128:128-f80:128-n8:16:32:64-S128"
target triple = "x86_64-pc-linux-gnu"

%struct.buftag = type { i32, i32, i32, i32, i32 }
%struct.LWLock = type { i16, %struct.pg_atomic_uint32, %struct.proclist_head }
%struct.pg_atomic_uint32 = type { i32 }
%struct.proclist_head = type { i32, i32 }
%struct.BufferDesc = type { %struct.buftag, i32, %struct.pg_atomic_uint32, i32, i32, %struct.LWLock }
%struct.SpinDelayStatus = type { i32, i32, i32, ptr, i32, ptr }

@.str.3 = private unnamed_addr constant [9 x i8] c"bufmgr.c\00", align 1
@MyProcNumber = external global i32, align 4
@PinCountWaitBuf = internal global ptr null, align 8
@__func__.LockBufHdr = private unnamed_addr constant [11 x i8] c"LockBufHdr\00", align 1

; Function Attrs: inlinehint nounwind uwtable
define internal void @pg_atomic_write_u32_impl(ptr noundef %0, i32 noundef %1) #3 {
  %3 = alloca ptr, align 8
  %4 = alloca i32, align 4
  store ptr %0, ptr %3, align 8
  store i32 %1, ptr %4, align 4
  %5 = load i32, ptr %4, align 4
  %6 = load ptr, ptr %3, align 8
  %7 = getelementptr inbounds nuw %struct.pg_atomic_uint32, ptr %6, i32 0, i32 0
  store volatile i32 %5, ptr %7, align 4
  ret void
}

; Function Attrs: inlinehint nounwind uwtable
define internal i32 @pg_atomic_fetch_or_u32_impl(ptr noundef %0, i32 noundef %1) #3 {
  %3 = alloca ptr, align 8
  %4 = alloca i32, align 4
  store ptr %0, ptr %3, align 8
  store i32 %1, ptr %4, align 4
  %5 = load ptr, ptr %3, align 8
  %6 = getelementptr inbounds nuw %struct.pg_atomic_uint32, ptr %5, i32 0, i32 0
  %7 = load i32, ptr %4, align 4
  %8 = atomicrmw or ptr %6, i32 %7 seq_cst, align 4
  ret i32 %8
}

; Function Attrs: inlinehint nounwind uwtable
define internal void @pg_atomic_write_u32(ptr noundef %0, i32 noundef %1) #3 {
  %3 = alloca ptr, align 8
  %4 = alloca i32, align 4
  store ptr %0, ptr %3, align 8
  store i32 %1, ptr %4, align 4
  %5 = load ptr, ptr %3, align 8
  %6 = load i32, ptr %4, align 4
  call void @pg_atomic_write_u32_impl(ptr noundef %5, i32 noundef %6)
  ret void
}

; Function Attrs: inlinehint nounwind uwtable
define internal i32 @pg_atomic_fetch_or_u32(ptr noundef %0, i32 noundef %1) #3 {
  %3 = alloca ptr, align 8
  %4 = alloca i32, align 4
  store ptr %0, ptr %3, align 8
  store i32 %1, ptr %4, align 4
  %5 = load ptr, ptr %3, align 8
  %6 = load i32, ptr %4, align 4
  %7 = call i32 @pg_atomic_fetch_or_u32_impl(ptr noundef %5, i32 noundef %6)
  ret i32 %7
}

; Function Attrs: inlinehint nounwind uwtable
define internal void @init_spin_delay(ptr noundef %0, ptr noundef %1, i32 noundef %2, ptr noundef %3) #3 {
  %5 = alloca ptr, align 8
  %6 = alloca ptr, align 8
  %7 = alloca i32, align 4
  %8 = alloca ptr, align 8
  store ptr %0, ptr %5, align 8
  store ptr %1, ptr %6, align 8
  store i32 %2, ptr %7, align 4
  store ptr %3, ptr %8, align 8
  %9 = load ptr, ptr %5, align 8
  %10 = getelementptr inbounds nuw %struct.SpinDelayStatus, ptr %9, i32 0, i32 0
  store i32 0, ptr %10, align 8
  %11 = load ptr, ptr %5, align 8
  %12 = getelementptr inbounds nuw %struct.SpinDelayStatus, ptr %11, i32 0, i32 1
  store i32 0, ptr %12, align 4
  %13 = load ptr, ptr %5, align 8
  %14 = getelementptr inbounds nuw %struct.SpinDelayStatus, ptr %13, i32 0, i32 2
  store i32 0, ptr %14, align 8
  %15 = load ptr, ptr %6, align 8
  %16 = load ptr, ptr %5, align 8
  %17 = getelementptr inbounds nuw %struct.SpinDelayStatus, ptr %16, i32 0, i32 3
  store ptr %15, ptr %17, align 8
  %18 = load i32, ptr %7, align 4
  %19 = load ptr, ptr %5, align 8
  %20 = getelementptr inbounds nuw %struct.SpinDelayStatus, ptr %19, i32 0, i32 4
  store i32 %18, ptr %20, align 8
  %21 = load ptr, ptr %8, align 8
  %22 = load ptr, ptr %5, align 8
  %23 = getelementptr inbounds nuw %struct.SpinDelayStatus, ptr %22, i32 0, i32 5
  store ptr %21, ptr %23, align 8
  ret void
}

; Function Attrs: inlinehint nounwind uwtable
define internal void @UnlockBufHdr(ptr noundef %0, i32 noundef %1) #3 {
  %3 = alloca ptr, align 8
  %4 = alloca i32, align 4
  store ptr %0, ptr %3, align 8
  store i32 %1, ptr %4, align 4
  call void asm sideeffect "", "~{memory},~{dirflag},~{fpsr},~{flags}"() #10, !srcloc !8
  %5 = load ptr, ptr %3, align 8
  %6 = getelementptr inbounds nuw %struct.BufferDesc, ptr %5, i32 0, i32 2
  %7 = load i32, ptr %4, align 4
  %8 = and i32 %7, -4194305
  call void @pg_atomic_write_u32(ptr noundef %6, i32 noundef %8)
  ret void
}

; Function Attrs: nounwind uwtable
define dso_local i32 @LockBufHdr(ptr noundef %0) #0 {
  %2 = alloca ptr, align 8
  %3 = alloca %struct.SpinDelayStatus, align 8
  %4 = alloca i32, align 4
  store ptr %0, ptr %2, align 8
  call void @llvm.lifetime.start.p0(i64 40, ptr %3) #10
  call void @llvm.lifetime.start.p0(i64 4, ptr %4) #10
  call void @init_spin_delay(ptr noundef %3, ptr noundef @.str.3, i32 noundef 5707, ptr noundef @__func__.LockBufHdr)
  br label %5

5:                                                ; preds = %14, %1
  br label %6

6:                                                ; preds = %5
  %7 = load ptr, ptr %2, align 8
  %8 = getelementptr inbounds nuw %struct.BufferDesc, ptr %7, i32 0, i32 2
  %9 = call i32 @pg_atomic_fetch_or_u32(ptr noundef %8, i32 noundef 4194304)
  store i32 %9, ptr %4, align 4
  %10 = load i32, ptr %4, align 4
  %11 = and i32 %10, 4194304
  %12 = icmp ne i32 %11, 0
  br i1 %12, label %14, label %13

13:                                               ; preds = %6
  br label %15

14:                                               ; preds = %6
  call void @perform_spin_delay(ptr noundef %3)
  br label %5

15:                                               ; preds = %13
  call void @finish_spin_delay(ptr noundef %3)
  %16 = load i32, ptr %4, align 4
  %17 = or i32 %16, 4194304
  call void @llvm.lifetime.end.p0(i64 4, ptr %4) #10
  call void @llvm.lifetime.end.p0(i64 40, ptr %3) #10
  ret i32 %17
}

; Function Attrs: nounwind uwtable
define internal void @CheckForBufferLeaks() #0 {
  ret void
}

; Function Attrs: nounwind uwtable
define dso_local void @UnlockBuffers() #0 {
  %1 = alloca ptr, align 8
  %2 = alloca i32, align 4
  call void @llvm.lifetime.start.p0(i64 8, ptr %1) #10
  %3 = load ptr, ptr @PinCountWaitBuf, align 8
  store ptr %3, ptr %1, align 8
  %4 = load ptr, ptr %1, align 8
  %5 = icmp ne ptr %4, null
  br i1 %5, label %6, label %24

6:                                                ; preds = %0
  call void @llvm.lifetime.start.p0(i64 4, ptr %2) #10
  %7 = load ptr, ptr %1, align 8
  %8 = call i32 @LockBufHdr(ptr noundef %7)
  store i32 %8, ptr %2, align 4
  %9 = load i32, ptr %2, align 4
  %10 = and i32 %9, 536870912
  %11 = icmp ne i32 %10, 0
  br i1 %11, label %12, label %21

12:                                               ; preds = %6
  %13 = load ptr, ptr %1, align 8
  %14 = getelementptr inbounds nuw %struct.BufferDesc, ptr %13, i32 0, i32 3
  %15 = load i32, ptr %14, align 4
  %16 = load i32, ptr @MyProcNumber, align 4
  %17 = icmp eq i32 %15, %16
  br i1 %17, label %18, label %21

18:                                               ; preds = %12
  %19 = load i32, ptr %2, align 4
  %20 = and i32 %19, -536870913
  store i32 %20, ptr %2, align 4
  br label %21

21:                                               ; preds = %18, %12, %6
  %22 = load ptr, ptr %1, align 8
  %23 = load i32, ptr %2, align 4
  call void @UnlockBufHdr(ptr noundef %22, i32 noundef %23)
  store ptr null, ptr @PinCountWaitBuf, align 8
  call void @llvm.lifetime.end.p0(i64 4, ptr %2) #10
  br label %24

24:                                               ; preds = %21, %0
  call void @llvm.lifetime.end.p0(i64 8, ptr %1) #10
  ret void
}

; Function Attrs: nounwind uwtable
define internal void @AtProcExit_Buffers(i32 noundef %0, i64 noundef %1) #0 {
  %3 = alloca i32, align 4
  %4 = alloca i64, align 8
  store i32 %0, ptr %3, align 4
  store i64 %1, ptr %4, align 8
  call void @UnlockBuffers()
  call void @CheckForBufferLeaks()
  call void @AtProcExit_LocalBuffers()
  ret void
}