; Function Attrs: nounwind uwtable
define internal void @AtProcExit_Buffers(i32 %0, i64 %1) #0 {
  %3 = alloca %struct.SpinDelayStatus, align 8
  %4 = load ptr, ptr @PinCountWaitBuf, align 8
  %.not.i = icmp eq ptr %4, null
  br i1 %.not.i, label %UnlockBuffers.exit, label %5

5:                                                ; preds = %2
  call void @llvm.lifetime.start.p0(i64 40, ptr nonnull %3) #16
  store i32 0, ptr %3, align 8
  %6 = getelementptr inbounds nuw i8, ptr %3, i64 4
  store i32 0, ptr %6, align 4
  %7 = getelementptr inbounds nuw i8, ptr %3, i64 8
  store i32 0, ptr %7, align 8
  %8 = getelementptr inbounds nuw i8, ptr %3, i64 16
  store ptr @.str.3, ptr %8, align 8
  %9 = getelementptr inbounds nuw i8, ptr %3, i64 24
  store i32 5707, ptr %9, align 8
  %10 = getelementptr inbounds nuw i8, ptr %3, i64 32
  store ptr @__func__.LockBufHdr, ptr %10, align 8
  %11 = getelementptr inbounds nuw i8, ptr %4, i64 24
  %12 = atomicrmw or ptr %11, i32 4194304 seq_cst, align 4
  %13 = and i32 %12, 4194304
  %.not2.i.i = icmp eq i32 %13, 0
  br i1 %.not2.i.i, label %LockBufHdr.exit.i, label %.lr.ph.i.i

.lr.ph.i.i:                                       ; preds = %5, %.lr.ph.i.i
  call void @perform_spin_delay(ptr noundef nonnull %3) #16
  %14 = atomicrmw or ptr %11, i32 4194304 seq_cst, align 4
  %15 = and i32 %14, 4194304
  %.not.i.i = icmp eq i32 %15, 0
  br i1 %.not.i.i, label %LockBufHdr.exit.i, label %.lr.ph.i.i

LockBufHdr.exit.i:                                ; preds = %.lr.ph.i.i, %5
  %.lcssa.i.i = phi i32 [ %12, %5 ], [ %14, %.lr.ph.i.i ]
  call void @finish_spin_delay(ptr noundef nonnull %3) #16
  call void @llvm.lifetime.end.p0(i64 40, ptr nonnull %3) #16
  %16 = and i32 %.lcssa.i.i, 536870912
  %.not7.i = icmp eq i32 %16, 0
  br i1 %.not7.i, label %23, label %17

17:                                               ; preds = %LockBufHdr.exit.i
  %18 = getelementptr inbounds nuw i8, ptr %4, i64 28
  %19 = load i32, ptr %18, align 4
  %20 = load i32, ptr @MyProcNumber, align 4
  %21 = icmp eq i32 %19, %20
  %22 = and i32 %.lcssa.i.i, -536870913
  %spec.select.i = select i1 %21, i32 %22, i32 %.lcssa.i.i
  br label %23

23:                                               ; preds = %17, %LockBufHdr.exit.i
  %.0.i = phi i32 [ %.lcssa.i.i, %LockBufHdr.exit.i ], [ %spec.select.i, %17 ]
  call void asm sideeffect "", "~{memory},~{dirflag},~{fpsr},~{flags}"() #16, !srcloc !4
  %24 = and i32 %.0.i, -4194305
  store volatile i32 %24, ptr %11, align 4
  store ptr null, ptr @PinCountWaitBuf, align 8
  br label %UnlockBuffers.exit

UnlockBuffers.exit:                               ; preds = %2, %23
  call void @AtProcExit_LocalBuffers() #16
  ret void
}